target datalayout = "e-m:e-p270:32:32-p271:32:32-p272:64:64-i64:64-i128:128-f80:128-n8:16:32:64-S128"
target triple = "x86_64-pc-linux-gnu"

%"class.gmx::StopConditionSignal" = type { i32, i8, i32, i32 }

; Function Attrs: mustprogress nounwind uwtable
define void @_ZN3gmx19StopConditionSignalC2Eibi(ptr noundef nonnull align 4 dereferenceable(16) %0, i32 noundef %1, i1 noundef zeroext %2, i32 noundef %3) unnamed_addr #1 align 2 {
  %5 = alloca ptr, align 8
  %6 = alloca i32, align 4
  %7 = alloca i8, align 1
  %8 = alloca i32, align 4
  store ptr %0, ptr %5, align 8
  store i32 %1, ptr %6, align 4
  %9 = zext i1 %2 to i8
  store i8 %9, ptr %7, align 1
  store i32 %3, ptr %8, align 4
  %10 = load ptr, ptr %5, align 8
  %11 = getelementptr inbounds %"class.gmx::StopConditionSignal", ptr %10, i32 0, i32 0
  store i32 0, ptr %11, align 4
  %12 = getelementptr inbounds %"class.gmx::StopConditionSignal", ptr %10, i32 0, i32 1
  %13 = load i8, ptr %7, align 1
  %14 = trunc i8 %13 to i1
  %15 = zext i1 %14 to i8
  store i8 %15, ptr %12, align 4
  %16 = getelementptr inbounds %"class.gmx::StopConditionSignal", ptr %10, i32 0, i32 2
  %17 = load i32, ptr %8, align 4
  store i32 %17, ptr %16, align 4
  %18 = getelementptr inbounds %"class.gmx::StopConditionSignal", ptr %10, i32 0, i32 3
  %19 = load i32, ptr %6, align 4
  store i32 %19, ptr %18, align 4
  ret void
}