; Function Attrs: mustprogress nofree norecurse nosync nounwind willreturn memory(argmem: write) uwtable
define void @_ZN3gmx19StopConditionSignalC2Eibi(ptr nocapture noundef nonnull writeonly align 4 dereferenceable(16) %0, i32 noundef %1, i1 noundef zeroext %2, i32 noundef %3) unnamed_addr #1 align 2 {
  %5 = zext i1 %2 to i8
  store i32 0, ptr %0, align 4
  %6 = getelementptr inbounds i8, ptr %0, i64 4
  store i8 %5, ptr %6, align 4
  %7 = getelementptr inbounds i8, ptr %0, i64 8
  store i32 %3, ptr %7, align 4
  %8 = getelementptr inbounds i8, ptr %0, i64 12
  store i32 %1, ptr %8, align 4
  ret void
}